Certificate:
    Data:
        Version: 3 (0x2)
        Serial Number: 202105301836249879 (0x2ce05b3832c3b17)
        Signature Algorithm: SM2-with-SM3
        Issuer: C=CN, ST=浙江, L=杭州, O=测试CA
        Validity
            Not Before: May 30 10:36:24 2021 GMT
            Not After : May 30 06:55:02 2031 GMT
        Subject: C=CN, ST=浙江, L=杭州, O=测试公司, CN=localhost
        Subject Public Key Info:
            Public Key Algorithm: id-ecPublicKey
                Public-Key: (256 bit)
                pub:
                    04:62:a5:bd:75:78:10:cb:96:e2:fc:38:c5:99:39:
                    f7:72:39:72:ac:bd:63:2e:e3:4a:44:5b:69:c5:75:
                    43:f1:5a:94:70:f9:a9:07:37:3f:00:6a:de:8c:6e:
                    be:64:f5:f5:22:1b:78:1b:0b:f4:98:1b:8e:2d:77:
                    8d:18:09:61:5b
                ASN1 OID: SM2
        X509v3 extensions:
            X509v3 Key Usage: critical
                Key Encipherment, Data Encipherment
            X509v3 Subject Key Identifier: 
                6C:C9:F9:51:D4:CC:EE:A5:6C:B6:01:92:49:A5:61:7B:C9:6B:08:8B
            X509v3 Authority Key Identifier: 
                keyid:91:D3:D7:A6:F9:7B:77:FC:79:5D:CB:D2:32:AC:BB:40:04:B0:F8:FF

    Signature Algorithm: SM2-with-SM3
         30:44:02:20:0d:43:d2:e1:2b:b9:eb:87:93:da:5a:43:f4:18:
         14:aa:f9:7c:3a:8c:dc:d9:92:93:0f:02:d8:07:54:07:77:d0:
         02:20:2e:22:7c:29:a2:0f:48:d7:0a:41:02:88:da:1a:e3:65:
         a5:4a:e8:09:49:cc:7f:54:ce:c9:8b:42:9a:63:20:4f
-----BEGIN CERTIFICATE-----
MIIB4zCCAYqgAwIBAgIIAs4Fs4MsOxcwCgYIKoEcz1UBg3UwQjELMAkGA1UEBhMC
Q04xDzANBgNVBAgMBua1meaxnzEPMA0GA1UEBwwG5p2t5beeMREwDwYDVQQKDAjm
tYvor5VDQTAeFw0yMTA1MzAxMDM2MjRaFw0zMTA1MzAwNjU1MDJaMFoxCzAJBgNV
BAYTAkNOMQ8wDQYDVQQIDAbmtZnmsZ8xDzANBgNVBAcMBuadreW3njEVMBMGA1UE
CgwM5rWL6K+V5YWs5Y+4MRIwEAYDVQQDEwlsb2NhbGhvc3QwWTATBgcqhkjOPQIB
BggqgRzPVQGCLQNCAARipb11eBDLluL8OMWZOfdyOXKsvWMu40pEW2nFdUPxWpRw
+akHNz8Aat6Mbr5k9fUiG3gbC/SYG44td40YCWFbo1IwUDAOBgNVHQ8BAf8EBAMC
BDAwHQYDVR0OBBYEFGzJ+VHUzO6lbLYBkkmlYXvJawiLMB8GA1UdIwQYMBaAFJHT
16b5e3f8eV3L0jKsu0AEsPj/MAoGCCqBHM9VAYN1A0cAMEQCIA1D0uErueuHk9pa
Q/QYFKr5fDqM3NmSkw8C2AdUB3fQAiAuInwpog9I1wpBAojaGuNlpUroCUnMf1TO
yYtCmmMgTw==
-----END CERTIFICATE-----
