Certificate:
    Data:
        Version: 3 (0x2)
        Serial Number: 202105301455027943 (0x2ce05b36c733ee7)
        Signature Algorithm: SM2-with-SM3
        Issuer: C=CN, ST=浙江, L=杭州, O=测试CA
        Validity
            Not Before: May 30 06:55:02 2021 GMT
            Not After : May 30 06:55:02 2031 GMT
        Subject: C=CN, ST=浙江, L=杭州, O=测试CA
        Subject Public Key Info:
            Public Key Algorithm: id-ecPublicKey
                Public-Key: (256 bit)
                pub:
                    04:ba:38:50:8d:ca:0a:07:d9:fe:0e:9c:f6:d5:e7:
                    bd:2b:c9:db:55:71:3b:c0:51:83:a8:fc:c9:3d:75:
                    c2:ac:bc:4c:03:bb:e5:99:d8:bc:3c:11:fe:0f:09:
                    ca:a0:9b:a0:7a:fa:aa:3c:eb:1e:00:29:78:e6:a5:
                    3c:d7:bd:77:fd
                ASN1 OID: SM2
        X509v3 extensions:
            X509v3 Key Usage: critical
                Certificate Sign, CRL Sign
            X509v3 Basic Constraints: critical
                CA:TRUE
            X509v3 Subject Key Identifier: 
                91:D3:D7:A6:F9:7B:77:FC:79:5D:CB:D2:32:AC:BB:40:04:B0:F8:FF
            X509v3 Authority Key Identifier: 
                keyid:91:D3:D7:A6:F9:7B:77:FC:79:5D:CB:D2:32:AC:BB:40:04:B0:F8:FF

    Signature Algorithm: SM2-with-SM3
         30:46:02:21:00:ee:62:30:dd:ec:79:d2:a0:d3:3e:b2:93:84:
         95:9e:43:66:d1:cf:05:19:5f:d3:b6:86:bd:37:e8:54:94:2d:
         91:02:21:00:d9:37:4a:33:88:25:69:83:9d:5c:80:e8:15:36:
         e6:21:e1:59:a7:fd:87:c6:4d:c9:59:8a:5e:7f:c9:be:00:fd
-----BEGIN CERTIFICATE-----
MIIB3jCCAYOgAwIBAgIIAs4Fs2xzPucwCgYIKoEcz1UBg3UwQjELMAkGA1UEBhMC
Q04xDzANBgNVBAgMBua1meaxnzEPMA0GA1UEBwwG5p2t5beeMREwDwYDVQQKDAjm
tYvor5VDQTAeFw0yMTA1MzAwNjU1MDJaFw0zMTA1MzAwNjU1MDJaMEIxCzAJBgNV
BAYTAkNOMQ8wDQYDVQQIDAbmtZnmsZ8xDzANBgNVBAcMBuadreW3njERMA8GA1UE
CgwI5rWL6K+VQ0EwWTATBgcqhkjOPQIBBggqgRzPVQGCLQNCAAS6OFCNygoH2f4O
nPbV570rydtVcTvAUYOo/Mk9dcKsvEwDu+WZ2Lw8Ef4PCcqgm6B6+qo86x4AKXjm
pTzXvXf9o2MwYTAOBgNVHQ8BAf8EBAMCAQYwDwYDVR0TAQH/BAUwAwEB/zAdBgNV
HQ4EFgQUkdPXpvl7d/x5XcvSMqy7QASw+P8wHwYDVR0jBBgwFoAUkdPXpvl7d/x5
XcvSMqy7QASw+P8wCgYIKoEcz1UBg3UDSQAwRgIhAO5iMN3sedKg0z6yk4SVnkNm
0c8FGV/Ttoa9N+hUlC2RAiEA2TdKM4glaYOdXIDoFTbmIeFZp/2Hxk3JWYpef8m+
AP0=
-----END CERTIFICATE-----
